target datalayout = "e-m:e-p270:32:32-p271:32:32-p272:64:64-i64:64-i128:128-f80:128-n8:16:32:64-S128"
target triple = "x86_64-pc-linux-gnu"

%"class.cv::Matx.4" = type { [9 x double] }

; Function Attrs: inlinehint mustprogress nounwind uwtable
define linkonce_odr hidden noundef nonnull align 8 dereferenceable(8) ptr @_ZN2cv4MatxIdLi3ELi3EEclEii(ptr noundef nonnull align 8 dereferenceable(72) %0, i32 noundef %1, i32 noundef %2) #4 comdat align 2 {
  %4 = alloca ptr, align 8
  %5 = alloca i32, align 4
  %6 = alloca i32, align 4
  store ptr %0, ptr %4, align 8, !tbaa !102
  store i32 %1, ptr %5, align 4, !tbaa !7
  store i32 %2, ptr %6, align 4, !tbaa !7
  %7 = load ptr, ptr %4, align 8
  %8 = getelementptr inbounds nuw %"class.cv::Matx.4", ptr %7, i32 0, i32 0
  %9 = load i32, ptr %5, align 4, !tbaa !7
  %10 = mul nsw i32 %9, 3
  %11 = load i32, ptr %6, align 4, !tbaa !7
  %12 = add nsw i32 %10, %11
  %13 = sext i32 %12 to i64
  %14 = getelementptr inbounds [9 x double], ptr %8, i64 0, i64 %13
  ret ptr %14
}

; Function Attrs: inlinehint mustprogress nounwind uwtable
define linkonce_odr hidden noundef nonnull align 8 dereferenceable(8) ptr @_ZNK2cv4MatxIdLi3ELi3EEclEii(ptr noundef nonnull align 8 dereferenceable(72) %0, i32 noundef %1, i32 noundef %2) #4 comdat align 2 {
  %4 = alloca ptr, align 8
  %5 = alloca i32, align 4
  %6 = alloca i32, align 4
  store ptr %0, ptr %4, align 8, !tbaa !102
  store i32 %1, ptr %5, align 4, !tbaa !7
  store i32 %2, ptr %6, align 4, !tbaa !7
  %7 = load ptr, ptr %4, align 8
  %8 = getelementptr inbounds nuw %"class.cv::Matx.4", ptr %7, i32 0, i32 0
  %9 = load i32, ptr %5, align 4, !tbaa !7
  %10 = mul nsw i32 %9, 3
  %11 = load i32, ptr %6, align 4, !tbaa !7
  %12 = add nsw i32 %10, %11
  %13 = sext i32 %12 to i64
  %14 = getelementptr inbounds [9 x double], ptr %8, i64 0, i64 %13
  ret ptr %14
}

; Function Attrs: mustprogress uwtable
define hidden noundef zeroext i1 @_ZN2cv5sqpnp10PoseSolver12invertSPD3x3ERKNS_4MatxIdLi3ELi3EEERS3_(ptr noundef nonnull align 8 dereferenceable(72) %0, ptr noundef nonnull align 8 dereferenceable(72) %1) #6 align 2 {
  %3 = alloca i1, align 1
  %4 = alloca ptr, align 8
  %5 = alloca ptr, align 8
  %6 = alloca [9 x double], align 16
  %7 = alloca [3 x double], align 16
  %8 = alloca [2 x double], align 16
  %9 = alloca [3 x double], align 16
  %10 = alloca i32, align 4
  store ptr %0, ptr %4, align 8, !tbaa !102
  store ptr %1, ptr %5, align 8, !tbaa !102
  call void @llvm.lifetime.start.p0(i64 72, ptr %6) #3
  call void @llvm.lifetime.start.p0(i64 24, ptr %7) #3
  call void @llvm.lifetime.start.p0(i64 16, ptr %8) #3
  call void @llvm.lifetime.start.p0(i64 24, ptr %9) #3
  %11 = load ptr, ptr %4, align 8, !tbaa !102
  %12 = call noundef nonnull align 8 dereferenceable(8) ptr @_ZNK2cv4MatxIdLi3ELi3EEclEii(ptr noundef nonnull align 8 dereferenceable(72) %11, i32 noundef 0, i32 noundef 0)
  %13 = load double, ptr %12, align 8, !tbaa !3
  %14 = getelementptr inbounds [3 x double], ptr %7, i64 0, i64 0
  store double %13, ptr %14, align 16, !tbaa !3
  %15 = getelementptr inbounds [2 x double], ptr %8, i64 0, i64 0
  store double %13, ptr %15, align 16, !tbaa !3
  %16 = getelementptr inbounds [2 x double], ptr %8, i64 0, i64 0
  %17 = load double, ptr %16, align 16, !tbaa !3
  %18 = fcmp ole double %17, 1.000000e-10
  br i1 %18, label %19, label %20

19:                                               ; preds = %2
  store i1 false, ptr %3, align 1
  store i32 1, ptr %10, align 4
  br label %235

20:                                               ; preds = %2
  %21 = getelementptr inbounds [2 x double], ptr %8, i64 0, i64 0
  %22 = load double, ptr %21, align 16, !tbaa !3
  %23 = fdiv double 1.000000e+00, %22
  %24 = getelementptr inbounds [2 x double], ptr %8, i64 0, i64 1
  store double %23, ptr %24, align 8, !tbaa !3
  %25 = load ptr, ptr %4, align 8, !tbaa !102
  %26 = call noundef nonnull align 8 dereferenceable(8) ptr @_ZNK2cv4MatxIdLi3ELi3EEclEii(ptr noundef nonnull align 8 dereferenceable(72) %25, i32 noundef 1, i32 noundef 0)
  %27 = load double, ptr %26, align 8, !tbaa !3
  %28 = getelementptr inbounds [2 x double], ptr %8, i64 0, i64 1
  %29 = load double, ptr %28, align 8, !tbaa !3
  %30 = fmul double %27, %29
  %31 = getelementptr inbounds [9 x double], ptr %6, i64 0, i64 3
  store double %30, ptr %31, align 8, !tbaa !3
  %32 = load ptr, ptr %4, align 8, !tbaa !102
  %33 = call noundef nonnull align 8 dereferenceable(8) ptr @_ZNK2cv4MatxIdLi3ELi3EEclEii(ptr noundef nonnull align 8 dereferenceable(72) %32, i32 noundef 2, i32 noundef 0)
  %34 = load double, ptr %33, align 8, !tbaa !3
  %35 = getelementptr inbounds [2 x double], ptr %8, i64 0, i64 1
  %36 = load double, ptr %35, align 8, !tbaa !3
  %37 = fmul double %34, %36
  %38 = getelementptr inbounds [9 x double], ptr %6, i64 0, i64 6
  store double %37, ptr %38, align 16, !tbaa !3
  %39 = getelementptr inbounds [9 x double], ptr %6, i64 0, i64 3
  %40 = load double, ptr %39, align 8, !tbaa !3
  %41 = getelementptr inbounds [3 x double], ptr %7, i64 0, i64 0
  %42 = load double, ptr %41, align 16, !tbaa !3
  %43 = fmul double %40, %42
  %44 = getelementptr inbounds [2 x double], ptr %8, i64 0, i64 0
  store double %43, ptr %44, align 16, !tbaa !3
  %45 = load ptr, ptr %4, align 8, !tbaa !102
  %46 = call noundef nonnull align 8 dereferenceable(8) ptr @_ZNK2cv4MatxIdLi3ELi3EEclEii(ptr noundef nonnull align 8 dereferenceable(72) %45, i32 noundef 1, i32 noundef 1)
  %47 = load double, ptr %46, align 8, !tbaa !3
  %48 = getelementptr inbounds [9 x double], ptr %6, i64 0, i64 3
  %49 = load double, ptr %48, align 8, !tbaa !3
  %50 = getelementptr inbounds [2 x double], ptr %8, i64 0, i64 0
  %51 = load double, ptr %50, align 16, !tbaa !3
  %52 = fneg double %49
  %53 = call double @llvm.fmuladd.f64(double %52, double %51, double %47)
  %54 = getelementptr inbounds [3 x double], ptr %7, i64 0, i64 1
  store double %53, ptr %54, align 8, !tbaa !3
  %55 = getelementptr inbounds [2 x double], ptr %8, i64 0, i64 1
  store double %53, ptr %55, align 8, !tbaa !3
  %56 = getelementptr inbounds [2 x double], ptr %8, i64 0, i64 1
  %57 = load double, ptr %56, align 8, !tbaa !3
  %58 = fcmp ole double %57, 1.000000e-10
  br i1 %58, label %59, label %60

59:                                               ; preds = %20
  store i1 false, ptr %3, align 1
  store i32 1, ptr %10, align 4
  br label %235

60:                                               ; preds = %20
  %61 = load ptr, ptr %4, align 8, !tbaa !102
  %62 = call noundef nonnull align 8 dereferenceable(8) ptr @_ZNK2cv4MatxIdLi3ELi3EEclEii(ptr noundef nonnull align 8 dereferenceable(72) %61, i32 noundef 2, i32 noundef 1)
  %63 = load double, ptr %62, align 8, !tbaa !3
  %64 = getelementptr inbounds [9 x double], ptr %6, i64 0, i64 6
  %65 = load double, ptr %64, align 16, !tbaa !3
  %66 = getelementptr inbounds [2 x double], ptr %8, i64 0, i64 0
  %67 = load double, ptr %66, align 16, !tbaa !3
  %68 = fneg double %65
  %69 = call double @llvm.fmuladd.f64(double %68, double %67, double %63)
  %70 = getelementptr inbounds [2 x double], ptr %8, i64 0, i64 1
  %71 = load double, ptr %70, align 8, !tbaa !3
  %72 = fdiv double %69, %71
  %73 = getelementptr inbounds [9 x double], ptr %6, i64 0, i64 7
  store double %72, ptr %73, align 8, !tbaa !3
  %74 = getelementptr inbounds [9 x double], ptr %6, i64 0, i64 6
  %75 = load double, ptr %74, align 16, !tbaa !3
  %76 = getelementptr inbounds [3 x double], ptr %7, i64 0, i64 0
  %77 = load double, ptr %76, align 16, !tbaa !3
  %78 = fmul double %75, %77
  %79 = getelementptr inbounds [2 x double], ptr %8, i64 0, i64 0
  store double %78, ptr %79, align 16, !tbaa !3
  %80 = getelementptr inbounds [9 x double], ptr %6, i64 0, i64 7
  %81 = load double, ptr %80, align 8, !tbaa !3
  %82 = getelementptr inbounds [3 x double], ptr %7, i64 0, i64 1
  %83 = load double, ptr %82, align 8, !tbaa !3
  %84 = fmul double %81, %83
  %85 = getelementptr inbounds [2 x double], ptr %8, i64 0, i64 1
  store double %84, ptr %85, align 8, !tbaa !3
  %86 = load ptr, ptr %4, align 8, !tbaa !102
  %87 = call noundef nonnull align 8 dereferenceable(8) ptr @_ZNK2cv4MatxIdLi3ELi3EEclEii(ptr noundef nonnull align 8 dereferenceable(72) %86, i32 noundef 2, i32 noundef 2)
  %88 = load double, ptr %87, align 8, !tbaa !3
  %89 = getelementptr inbounds [9 x double], ptr %6, i64 0, i64 6
  %90 = load double, ptr %89, align 16, !tbaa !3
  %91 = getelementptr inbounds [2 x double], ptr %8, i64 0, i64 0
  %92 = load double, ptr %91, align 16, !tbaa !3
  %93 = fneg double %90
  %94 = call double @llvm.fmuladd.f64(double %93, double %92, double %88)
  %95 = getelementptr inbounds [9 x double], ptr %6, i64 0, i64 7
  %96 = load double, ptr %95, align 8, !tbaa !3
  %97 = getelementptr inbounds [2 x double], ptr %8, i64 0, i64 1
  %98 = load double, ptr %97, align 8, !tbaa !3
  %99 = fneg double %96
  %100 = call double @llvm.fmuladd.f64(double %99, double %98, double %94)
  %101 = getelementptr inbounds [3 x double], ptr %7, i64 0, i64 2
  store double %100, ptr %101, align 16, !tbaa !3
  %102 = getelementptr inbounds [3 x double], ptr %7, i64 0, i64 2
  %103 = load double, ptr %102, align 16, !tbaa !3
  %104 = fcmp ole double %103, 1.000000e-10
  br i1 %104, label %105, label %106

105:                                              ; preds = %60
  store i1 false, ptr %3, align 1
  store i32 1, ptr %10, align 4
  br label %235

106:                                              ; preds = %60
  %107 = getelementptr inbounds [3 x double], ptr %7, i64 0, i64 0
  %108 = load double, ptr %107, align 16, !tbaa !3
  %109 = fdiv double 1.000000e+00, %108
  %110 = getelementptr inbounds [3 x double], ptr %7, i64 0, i64 0
  store double %109, ptr %110, align 16, !tbaa !3
  %111 = getelementptr inbounds [3 x double], ptr %7, i64 0, i64 1
  %112 = load double, ptr %111, align 8, !tbaa !3
  %113 = fdiv double 1.000000e+00, %112
  %114 = getelementptr inbounds [3 x double], ptr %7, i64 0, i64 1
  store double %113, ptr %114, align 8, !tbaa !3
  %115 = getelementptr inbounds [3 x double], ptr %7, i64 0, i64 2
  %116 = load double, ptr %115, align 16, !tbaa !3
  %117 = fdiv double 1.000000e+00, %116
  %118 = getelementptr inbounds [3 x double], ptr %7, i64 0, i64 2
  store double %117, ptr %118, align 16, !tbaa !3
  %119 = getelementptr inbounds [9 x double], ptr %6, i64 0, i64 3
  %120 = load double, ptr %119, align 8, !tbaa !3
  %121 = fneg double %120
  %122 = getelementptr inbounds [3 x double], ptr %9, i64 0, i64 1
  store double %121, ptr %122, align 8, !tbaa !3
  %123 = getelementptr inbounds [9 x double], ptr %6, i64 0, i64 6
  %124 = load double, ptr %123, align 16, !tbaa !3
  %125 = fneg double %124
  %126 = getelementptr inbounds [9 x double], ptr %6, i64 0, i64 7
  %127 = load double, ptr %126, align 8, !tbaa !3
  %128 = getelementptr inbounds [9 x double], ptr %6, i64 0, i64 3
  %129 = load double, ptr %128, align 8, !tbaa !3
  %130 = call double @llvm.fmuladd.f64(double %127, double %129, double %125)
  %131 = getelementptr inbounds [3 x double], ptr %9, i64 0, i64 2
  store double %130, ptr %131, align 16, !tbaa !3
  %132 = getelementptr inbounds [3 x double], ptr %9, i64 0, i64 2
  %133 = load double, ptr %132, align 16, !tbaa !3
  %134 = getelementptr inbounds [3 x double], ptr %7, i64 0, i64 2
  %135 = load double, ptr %134, align 16, !tbaa !3
  %136 = fmul double %133, %135
  %137 = getelementptr inbounds [3 x double], ptr %9, i64 0, i64 2
  store double %136, ptr %137, align 16, !tbaa !3
  %138 = load ptr, ptr %5, align 8, !tbaa !102
  %139 = call noundef nonnull align 8 dereferenceable(8) ptr @_ZN2cv4MatxIdLi3ELi3EEclEii(ptr noundef nonnull align 8 dereferenceable(72) %138, i32 noundef 0, i32 noundef 2)
  store double %136, ptr %139, align 8, !tbaa !3
  %140 = getelementptr inbounds [3 x double], ptr %9, i64 0, i64 1
  %141 = load double, ptr %140, align 8, !tbaa !3
  %142 = getelementptr inbounds [3 x double], ptr %7, i64 0, i64 1
  %143 = load double, ptr %142, align 8, !tbaa !3
  %144 = getelementptr inbounds [9 x double], ptr %6, i64 0, i64 7
  %145 = load double, ptr %144, align 8, !tbaa !3
  %146 = getelementptr inbounds [3 x double], ptr %9, i64 0, i64 2
  %147 = load double, ptr %146, align 16, !tbaa !3
  %148 = fmul double %145, %147
  %149 = fneg double %148
  %150 = call double @llvm.fmuladd.f64(double %141, double %143, double %149)
  %151 = getelementptr inbounds [3 x double], ptr %9, i64 0, i64 1
  store double %150, ptr %151, align 8, !tbaa !3
  %152 = load ptr, ptr %5, align 8, !tbaa !102
  %153 = call noundef nonnull align 8 dereferenceable(8) ptr @_ZN2cv4MatxIdLi3ELi3EEclEii(ptr noundef nonnull align 8 dereferenceable(72) %152, i32 noundef 0, i32 noundef 1)
  store double %150, ptr %153, align 8, !tbaa !3
  %154 = getelementptr inbounds [3 x double], ptr %7, i64 0, i64 0
  %155 = load double, ptr %154, align 16, !tbaa !3
  %156 = getelementptr inbounds [9 x double], ptr %6, i64 0, i64 3
  %157 = load double, ptr %156, align 8, !tbaa !3
  %158 = getelementptr inbounds [3 x double], ptr %9, i64 0, i64 1
  %159 = load double, ptr %158, align 8, !tbaa !3
  %160 = fneg double %157
  %161 = call double @llvm.fmuladd.f64(double %160, double %159, double %155)
  %162 = getelementptr inbounds [9 x double], ptr %6, i64 0, i64 6
  %163 = load double, ptr %162, align 16, !tbaa !3
  %164 = getelementptr inbounds [3 x double], ptr %9, i64 0, i64 2
  %165 = load double, ptr %164, align 16, !tbaa !3
  %166 = fneg double %163
  %167 = call double @llvm.fmuladd.f64(double %166, double %165, double %161)
  %168 = load ptr, ptr %5, align 8, !tbaa !102
  %169 = call noundef nonnull align 8 dereferenceable(8) ptr @_ZN2cv4MatxIdLi3ELi3EEclEii(ptr noundef nonnull align 8 dereferenceable(72) %168, i32 noundef 0, i32 noundef 0)
  store double %167, ptr %169, align 8, !tbaa !3
  %170 = getelementptr inbounds [9 x double], ptr %6, i64 0, i64 7
  %171 = load double, ptr %170, align 8, !tbaa !3
  %172 = fneg double %171
  %173 = getelementptr inbounds [3 x double], ptr %9, i64 0, i64 2
  store double %172, ptr %173, align 16, !tbaa !3
  %174 = getelementptr inbounds [3 x double], ptr %9, i64 0, i64 2
  %175 = load double, ptr %174, align 16, !tbaa !3
  %176 = getelementptr inbounds [3 x double], ptr %7, i64 0, i64 2
  %177 = load double, ptr %176, align 16, !tbaa !3
  %178 = fmul double %175, %177
  %179 = getelementptr inbounds [3 x double], ptr %9, i64 0, i64 2
  store double %178, ptr %179, align 16, !tbaa !3
  %180 = load ptr, ptr %5, align 8, !tbaa !102
  %181 = call noundef nonnull align 8 dereferenceable(8) ptr @_ZN2cv4MatxIdLi3ELi3EEclEii(ptr noundef nonnull align 8 dereferenceable(72) %180, i32 noundef 1, i32 noundef 2)
  store double %178, ptr %181, align 8, !tbaa !3
  %182 = getelementptr inbounds [3 x double], ptr %7, i64 0, i64 1
  %183 = load double, ptr %182, align 8, !tbaa !3
  %184 = getelementptr inbounds [9 x double], ptr %6, i64 0, i64 7
  %185 = load double, ptr %184, align 8, !tbaa !3
  %186 = getelementptr inbounds [3 x double], ptr %9, i64 0, i64 2
  %187 = load double, ptr %186, align 16, !tbaa !3
  %188 = fneg double %185
  %189 = call double @llvm.fmuladd.f64(double %188, double %187, double %183)
  %190 = getelementptr inbounds [3 x double], ptr %9, i64 0, i64 1
  store double %189, ptr %190, align 8, !tbaa !3
  %191 = load ptr, ptr %5, align 8, !tbaa !102
  %192 = call noundef nonnull align 8 dereferenceable(8) ptr @_ZN2cv4MatxIdLi3ELi3EEclEii(ptr noundef nonnull align 8 dereferenceable(72) %191, i32 noundef 1, i32 noundef 1)
  store double %189, ptr %192, align 8, !tbaa !3
  %193 = getelementptr inbounds [9 x double], ptr %6, i64 0, i64 3
  %194 = load double, ptr %193, align 8, !tbaa !3
  %195 = fneg double %194
  %196 = getelementptr inbounds [3 x double], ptr %9, i64 0, i64 1
  %197 = load double, ptr %196, align 8, !tbaa !3
  %198 = getelementptr inbounds [9 x double], ptr %6, i64 0, i64 6
  %199 = load double, ptr %198, align 16, !tbaa !3
  %200 = getelementptr inbounds [3 x double], ptr %9, i64 0, i64 2
  %201 = load double, ptr %200, align 16, !tbaa !3
  %202 = fmul double %199, %201
  %203 = fneg double %202
  %204 = call double @llvm.fmuladd.f64(double %195, double %197, double %203)
  %205 = load ptr, ptr %5, align 8, !tbaa !102
  %206 = call noundef nonnull align 8 dereferenceable(8) ptr @_ZN2cv4MatxIdLi3ELi3EEclEii(ptr noundef nonnull align 8 dereferenceable(72) %205, i32 noundef 1, i32 noundef 0)
  store double %204, ptr %206, align 8, !tbaa !3
  %207 = getelementptr inbounds [3 x double], ptr %7, i64 0, i64 2
  %208 = load double, ptr %207, align 16, !tbaa !3
  %209 = getelementptr inbounds [3 x double], ptr %9, i64 0, i64 2
  store double %208, ptr %209, align 16, !tbaa !3
  %210 = load ptr, ptr %5, align 8, !tbaa !102
  %211 = call noundef nonnull align 8 dereferenceable(8) ptr @_ZN2cv4MatxIdLi3ELi3EEclEii(ptr noundef nonnull align 8 dereferenceable(72) %210, i32 noundef 2, i32 noundef 2)
  store double %208, ptr %211, align 8, !tbaa !3
  %212 = getelementptr inbounds [9 x double], ptr %6, i64 0, i64 7
  %213 = load double, ptr %212, align 8, !tbaa !3
  %214 = fneg double %213
  %215 = getelementptr inbounds [3 x double], ptr %9, i64 0, i64 2
  %216 = load double, ptr %215, align 16, !tbaa !3
  %217 = fmul double %214, %216
  %218 = getelementptr inbounds [3 x double], ptr %9, i64 0, i64 1
  store double %217, ptr %218, align 8, !tbaa !3
  %219 = load ptr, ptr %5, align 8, !tbaa !102
  %220 = call noundef nonnull align 8 dereferenceable(8) ptr @_ZN2cv4MatxIdLi3ELi3EEclEii(ptr noundef nonnull align 8 dereferenceable(72) %219, i32 noundef 2, i32 noundef 1)
  store double %217, ptr %220, align 8, !tbaa !3
  %221 = getelementptr inbounds [9 x double], ptr %6, i64 0, i64 3
  %222 = load double, ptr %221, align 8, !tbaa !3
  %223 = fneg double %222
  %224 = getelementptr inbounds [3 x double], ptr %9, i64 0, i64 1
  %225 = load double, ptr %224, align 8, !tbaa !3
  %226 = getelementptr inbounds [9 x double], ptr %6, i64 0, i64 6
  %227 = load double, ptr %226, align 16, !tbaa !3
  %228 = getelementptr inbounds [3 x double], ptr %9, i64 0, i64 2
  %229 = load double, ptr %228, align 16, !tbaa !3
  %230 = fmul double %227, %229
  %231 = fneg double %230
  %232 = call double @llvm.fmuladd.f64(double %223, double %225, double %231)
  %233 = load ptr, ptr %5, align 8, !tbaa !102
  %234 = call noundef nonnull align 8 dereferenceable(8) ptr @_ZN2cv4MatxIdLi3ELi3EEclEii(ptr noundef nonnull align 8 dereferenceable(72) %233, i32 noundef 2, i32 noundef 0)
  store double %232, ptr %234, align 8, !tbaa !3
  store i1 true, ptr %3, align 1
  store i32 1, ptr %10, align 4
  br label %235

235:                                              ; preds = %106, %105, %59, %19
  call void @llvm.lifetime.end.p0(i64 24, ptr %9) #3
  call void @llvm.lifetime.end.p0(i64 16, ptr %8) #3
  call void @llvm.lifetime.end.p0(i64 24, ptr %7) #3
  call void @llvm.lifetime.end.p0(i64 72, ptr %6) #3
  %236 = load i1, ptr %3, align 1
  ret i1 %236
}