; Function Attrs: mustprogress nofree norecurse nosync nounwind willreturn memory(argmem: readwrite) uwtable
define hidden noundef zeroext i1 @_ZN2cv5sqpnp10PoseSolver12invertSPD3x3ERKNS_4MatxIdLi3ELi3EEERS3_(ptr noundef nonnull readonly align 8 captures(none) dereferenceable(72) %0, ptr noundef nonnull writeonly align 8 captures(none) dereferenceable(72) %1) local_unnamed_addr #9 align 2 {
  %3 = load double, ptr %0, align 8, !tbaa !70
  %4 = fcmp ugt double %3, 1.000000e-10
  br i1 %4, label %5, label %59

5:                                                ; preds = %2
  %6 = fdiv double 1.000000e+00, %3
  %7 = getelementptr inbounds nuw i8, ptr %0, i64 24
  %8 = load double, ptr %7, align 8, !tbaa !70
  %9 = fmul double %6, %8
  %10 = getelementptr inbounds nuw i8, ptr %0, i64 48
  %11 = load double, ptr %10, align 8, !tbaa !70
  %12 = fmul double %6, %11
  %13 = fmul double %3, %9
  %14 = getelementptr inbounds nuw i8, ptr %0, i64 32
  %15 = load double, ptr %14, align 8, !tbaa !70
  %16 = fneg double %9
  %17 = tail call double @llvm.fmuladd.f64(double %16, double %13, double %15)
  %18 = fcmp ugt double %17, 1.000000e-10
  br i1 %18, label %19, label %59

19:                                               ; preds = %5
  %20 = getelementptr inbounds nuw i8, ptr %0, i64 56
  %21 = load double, ptr %20, align 8, !tbaa !70
  %22 = fneg double %12
  %23 = tail call double @llvm.fmuladd.f64(double %22, double %13, double %21)
  %24 = fdiv double %23, %17
  %25 = fmul double %3, %12
  %26 = fmul double %17, %24
  %27 = getelementptr inbounds nuw i8, ptr %0, i64 64
  %28 = load double, ptr %27, align 8, !tbaa !70
  %29 = tail call double @llvm.fmuladd.f64(double %22, double %25, double %28)
  %30 = fneg double %24
  %31 = tail call double @llvm.fmuladd.f64(double %30, double %26, double %29)
  %32 = fcmp ugt double %31, 1.000000e-10
  br i1 %32, label %33, label %59

33:                                               ; preds = %19
  %34 = fdiv double 1.000000e+00, %17
  %35 = fdiv double 1.000000e+00, %31
  %36 = tail call double @llvm.fmuladd.f64(double %24, double %9, double %22)
  %37 = fmul double %36, %35
  %38 = getelementptr inbounds nuw i8, ptr %1, i64 16
  store double %37, ptr %38, align 8, !tbaa !70
  %39 = fneg double %37
  %40 = fmul double %24, %39
  %41 = tail call double @llvm.fmuladd.f64(double %16, double %34, double %40)
  %42 = getelementptr inbounds nuw i8, ptr %1, i64 8
  store double %41, ptr %42, align 8, !tbaa !70
  %43 = tail call double @llvm.fmuladd.f64(double %16, double %41, double %6)
  %44 = tail call double @llvm.fmuladd.f64(double %22, double %37, double %43)
  store double %44, ptr %1, align 8, !tbaa !70
  %45 = fmul double %35, %30
  %46 = getelementptr inbounds nuw i8, ptr %1, i64 40
  store double %45, ptr %46, align 8, !tbaa !70
  %47 = tail call double @llvm.fmuladd.f64(double %30, double %45, double %34)
  %48 = getelementptr inbounds nuw i8, ptr %1, i64 32
  store double %47, ptr %48, align 8, !tbaa !70
  %49 = fneg double %45
  %50 = fmul double %12, %49
  %51 = tail call double @llvm.fmuladd.f64(double %16, double %47, double %50)
  %52 = getelementptr inbounds nuw i8, ptr %1, i64 24
  store double %51, ptr %52, align 8, !tbaa !70
  %53 = getelementptr inbounds nuw i8, ptr %1, i64 64
  store double %35, ptr %53, align 8, !tbaa !70
  %54 = getelementptr inbounds nuw i8, ptr %1, i64 56
  store double %45, ptr %54, align 8, !tbaa !70
  %55 = fneg double %35
  %56 = fmul double %12, %55
  %57 = tail call double @llvm.fmuladd.f64(double %16, double %45, double %56)
  %58 = getelementptr inbounds nuw i8, ptr %1, i64 48
  store double %57, ptr %58, align 8, !tbaa !70
  br label %59

59:                                               ; preds = %19, %5, %2, %33
  %.0 = phi i1 [ true, %33 ], [ false, %2 ], [ false, %5 ], [ false, %19 ]
  ret i1 %.0
}